; Function Attrs: mustprogress nofree norecurse nosync nounwind willreturn memory(argmem: readwrite) uwtable
define void @_ZN6Assimp13ObjFileParser9setBufferERSt6vectorIcSaIcEE(ptr nocapture noundef nonnull writeonly align 8 dereferenceable(4176) %this, ptr nocapture noundef nonnull readonly align 8 dereferenceable(24) %buffer) local_unnamed_addr #7 align 2 {
entry:
  %0 = load ptr, ptr %buffer, align 8
  store ptr %0, ptr %this, align 8
  %_M_finish.i = getelementptr inbounds i8, ptr %buffer, i64 8
  %1 = load ptr, ptr %_M_finish.i, align 8
  %m_DataItEnd = getelementptr inbounds i8, ptr %this, i64 8
  store ptr %1, ptr %m_DataItEnd, align 8
  ret void
}